target datalayout = "e-m:e-p270:32:32-p271:32:32-p272:64:64-i64:64-i128:128-f80:128-n8:16:32:64-S128"
target triple = "x86_64-unknown-linux-gnu"

%"class.std::shared_ptr" = type { %"class.std::__shared_ptr" }
%"class.std::__shared_ptr" = type { ptr, %"class.std::__shared_count" }
%"class.std::__shared_count" = type { ptr }
%"class.std::__weak_count" = type { ptr }
%"struct.std::atomic" = type { %"struct.std::__atomic_base" }
%"struct.std::__atomic_base" = type { i64 }
%"class.absl::lts_20230802::Mutex" = type { %"struct.std::atomic" }
%"struct.std::atomic.0" = type { %"struct.std::__atomic_base.1" }
%"struct.std::__atomic_base.1" = type { i64 }
%"class.grpc_core::PeriodicUpdate" = type { %"struct.std::atomic", %"class.grpc_core::Duration", %"class.grpc_core::Timestamp", i64 }
%"class.grpc_core::Duration" = type { i64 }
%"class.grpc_core::Timestamp" = type { i64 }
%"class.grpc_core::GrpcMemoryAllocatorImpl" = type { %"class.grpc_event_engine::experimental::internal::MemoryAllocatorImpl", %"class.std::shared_ptr", %"struct.std::atomic.0", %"struct.std::atomic.0", %"struct.std::atomic.0", %"class.grpc_core::PeriodicUpdate", %"class.absl::lts_20230802::Mutex", i8, [3 x %"class.std::unique_ptr.37"] }
%"class.grpc_event_engine::experimental::internal::MemoryAllocatorImpl" = type { ptr, %"class.std::enable_shared_from_this.34" }
%"class.std::enable_shared_from_this.34" = type { %"class.std::weak_ptr.35" }
%"class.std::weak_ptr.35" = type { %"class.std::__weak_ptr.36" }
%"class.std::__weak_ptr.36" = type { ptr, %"class.std::__weak_count" }
%"class.std::unique_ptr.37" = type { %"struct.std::__uniq_ptr_data.38" }
%"struct.std::__uniq_ptr_data.38" = type { %"class.std::__uniq_ptr_impl.39" }
%"class.std::__uniq_ptr_impl.39" = type { %"class.std::tuple.40" }
%"class.std::tuple.40" = type { %"struct.std::_Tuple_impl.41" }
%"struct.std::_Tuple_impl.41" = type { %"struct.std::_Head_base.42" }
%"struct.std::_Head_base.42" = type { ptr }

; Function Attrs: mustprogress nounwind uwtable
define linkonce_odr noundef ptr @_ZNKSt12__shared_ptrIN9grpc_core16BasicMemoryQuotaELN9__gnu_cxx12_Lock_policyE2EE3getEv(ptr noundef nonnull align 8 dereferenceable(16) %this) #4 comdat align 2 {
entry:
  %this.addr = alloca ptr, align 8
  store ptr %this, ptr %this.addr, align 8
  %this1 = load ptr, ptr %this.addr, align 8
  %_M_ptr = getelementptr inbounds %"class.std::__shared_ptr", ptr %this1, i32 0, i32 0
  %0 = load ptr, ptr %_M_ptr, align 8
  ret ptr %0
}

; Function Attrs: mustprogress nounwind uwtable
define linkonce_odr noundef ptr @_ZNKSt19__shared_ptr_accessIN9grpc_core16BasicMemoryQuotaELN9__gnu_cxx12_Lock_policyE2ELb0ELb0EE6_M_getEv(ptr noundef nonnull align 1 dereferenceable(1) %this) #4 comdat align 2 {
entry:
  %this.addr = alloca ptr, align 8
  store ptr %this, ptr %this.addr, align 8
  %this1 = load ptr, ptr %this.addr, align 8
  %call = call noundef ptr @_ZNKSt12__shared_ptrIN9grpc_core16BasicMemoryQuotaELN9__gnu_cxx12_Lock_policyE2EE3getEv(ptr noundef nonnull align 8 dereferenceable(16) %this1) #3
  ret ptr %call
}

; Function Attrs: mustprogress nounwind uwtable
define linkonce_odr noundef ptr @_ZNKSt19__shared_ptr_accessIN9grpc_core16BasicMemoryQuotaELN9__gnu_cxx12_Lock_policyE2ELb0ELb0EEptEv(ptr noundef nonnull align 1 dereferenceable(1) %this) #4 comdat align 2 {
entry:
  %this.addr = alloca ptr, align 8
  store ptr %this, ptr %this.addr, align 8
  %this1 = load ptr, ptr %this.addr, align 8
  %call = call noundef ptr @_ZNKSt19__shared_ptr_accessIN9grpc_core16BasicMemoryQuotaELN9__gnu_cxx12_Lock_policyE2ELb0ELb0EE6_M_getEv(ptr noundef nonnull align 1 dereferenceable(1) %this1) #3
  ret ptr %call
}

; Function Attrs: mustprogress nounwind uwtable
define linkonce_odr noundef i64 @_ZN9grpc_core5ClampImEET_S1_S1_S1_(i64 noundef %val, i64 noundef %min, i64 noundef %max) #4 comdat {
entry:
  %retval = alloca i64, align 8
  %val.addr = alloca i64, align 8
  %min.addr = alloca i64, align 8
  %max.addr = alloca i64, align 8
  store i64 %val, ptr %val.addr, align 8
  store i64 %min, ptr %min.addr, align 8
  store i64 %max, ptr %max.addr, align 8
  %0 = load i64, ptr %val.addr, align 8
  %1 = load i64, ptr %min.addr, align 8
  %cmp = icmp ult i64 %0, %1
  br i1 %cmp, label %if.then, label %if.end

if.then:                                          ; preds = %entry
  %2 = load i64, ptr %min.addr, align 8
  store i64 %2, ptr %retval, align 8
  br label %return

if.end:                                           ; preds = %entry
  %3 = load i64, ptr %max.addr, align 8
  %4 = load i64, ptr %val.addr, align 8
  %cmp1 = icmp ult i64 %3, %4
  br i1 %cmp1, label %if.then2, label %if.end3

if.then2:                                         ; preds = %if.end
  %5 = load i64, ptr %max.addr, align 8
  store i64 %5, ptr %retval, align 8
  br label %return

if.end3:                                          ; preds = %if.end
  %6 = load i64, ptr %val.addr, align 8
  store i64 %6, ptr %retval, align 8
  br label %return

return:                                           ; preds = %if.end3, %if.then2, %if.then
  %7 = load i64, ptr %retval, align 8
  ret i64 %7
}

; Function Attrs: mustprogress nounwind uwtable
define linkonce_odr noundef i32 @_ZStanSt12memory_orderSt23__memory_order_modifier(i32 noundef %__m, i32 noundef %__mod) #4 comdat {
entry:
  %__m.addr = alloca i32, align 4
  %__mod.addr = alloca i32, align 4
  store i32 %__m, ptr %__m.addr, align 4
  store i32 %__mod, ptr %__mod.addr, align 4
  %0 = load i32, ptr %__m.addr, align 4
  %1 = load i32, ptr %__mod.addr, align 4
  %and = and i32 %0, %1
  ret i32 %and
}

; Function Attrs: mustprogress uwtable
define void @_ZN9grpc_core23GrpcMemoryAllocatorImpl9ReplenishEv(ptr noundef nonnull align 8 dereferenceable(136) %this) #5 align 2 {
entry:
  %this.addr.i14 = alloca ptr, align 8
  %__i.addr.i15 = alloca i64, align 8
  %__m.addr.i16 = alloca i32, align 4
  %.atomictmp.i17 = alloca i64, align 8
  %atomic-temp.i18 = alloca i64, align 8
  %this.addr.i7 = alloca ptr, align 8
  %__i.addr.i = alloca i64, align 8
  %__m.addr.i8 = alloca i32, align 4
  %.atomictmp.i = alloca i64, align 8
  %atomic-temp.i9 = alloca i64, align 8
  %this.addr.i = alloca ptr, align 8
  %__m.addr.i = alloca i32, align 4
  %__b.i = alloca i32, align 4
  %atomic-temp.i = alloca i64, align 8
  %this.addr = alloca ptr, align 8
  %amount = alloca i64, align 8
  store ptr %this, ptr %this.addr, align 8
  %this1 = load ptr, ptr %this.addr, align 8
  %taken_bytes_ = getelementptr inbounds %"class.grpc_core::GrpcMemoryAllocatorImpl", ptr %this1, i32 0, i32 3
  store ptr %taken_bytes_, ptr %this.addr.i, align 8
  store i32 0, ptr %__m.addr.i, align 4
  %this1.i = load ptr, ptr %this.addr.i, align 8
  %0 = load i32, ptr %__m.addr.i, align 4
  %call.i = call noundef i32 @_ZStanSt12memory_orderSt23__memory_order_modifier(i32 noundef %0, i32 noundef 65535)
  store i32 %call.i, ptr %__b.i, align 4
  %1 = load i32, ptr %__m.addr.i, align 4
  switch i32 %1, label %monotonic.i [
    i32 1, label %acquire.i
    i32 2, label %acquire.i
    i32 5, label %seqcst.i
  ]

monotonic.i:                                      ; preds = %entry
  %2 = load atomic i64, ptr %this1.i monotonic, align 8
  store i64 %2, ptr %atomic-temp.i, align 8
  br label %_ZNKSt13__atomic_baseImE4loadESt12memory_order.exit

acquire.i:                                        ; preds = %entry, %entry
  %3 = load atomic i64, ptr %this1.i acquire, align 8
  store i64 %3, ptr %atomic-temp.i, align 8
  br label %_ZNKSt13__atomic_baseImE4loadESt12memory_order.exit

seqcst.i:                                         ; preds = %entry
  %4 = load atomic i64, ptr %this1.i seq_cst, align 8
  store i64 %4, ptr %atomic-temp.i, align 8
  br label %_ZNKSt13__atomic_baseImE4loadESt12memory_order.exit

_ZNKSt13__atomic_baseImE4loadESt12memory_order.exit: ; preds = %seqcst.i, %acquire.i, %monotonic.i
  %5 = load i64, ptr %atomic-temp.i, align 8
  %div = udiv i64 %5, 3
  %call2 = call noundef i64 @_ZN9grpc_core5ClampImEET_S1_S1_S1_(i64 noundef %div, i64 noundef 4096, i64 noundef 1048576)
  store i64 %call2, ptr %amount, align 8
  %memory_quota_ = getelementptr inbounds %"class.grpc_core::GrpcMemoryAllocatorImpl", ptr %this1, i32 0, i32 1
  %call3 = call noundef ptr @_ZNKSt19__shared_ptr_accessIN9grpc_core16BasicMemoryQuotaELN9__gnu_cxx12_Lock_policyE2ELb0ELb0EEptEv(ptr noundef nonnull align 1 dereferenceable(1) %memory_quota_) #3
  %6 = load i64, ptr %amount, align 8
  call void @_ZN9grpc_core16BasicMemoryQuota4TakeEPNS_23GrpcMemoryAllocatorImplEm(ptr noundef nonnull align 8 dereferenceable(1488) %call3, ptr noundef %this1, i64 noundef %6)
  %taken_bytes_4 = getelementptr inbounds %"class.grpc_core::GrpcMemoryAllocatorImpl", ptr %this1, i32 0, i32 3
  %7 = load i64, ptr %amount, align 8
  store ptr %taken_bytes_4, ptr %this.addr.i14, align 8
  store i64 %7, ptr %__i.addr.i15, align 8
  store i32 0, ptr %__m.addr.i16, align 4
  %this1.i19 = load ptr, ptr %this.addr.i14, align 8
  %8 = load i32, ptr %__m.addr.i16, align 4
  %9 = load i64, ptr %__i.addr.i15, align 8
  store i64 %9, ptr %.atomictmp.i17, align 8
  switch i32 %8, label %monotonic.i24 [
    i32 1, label %acquire.i23
    i32 2, label %acquire.i23
    i32 3, label %release.i22
    i32 4, label %acqrel.i21
    i32 5, label %seqcst.i20
  ]

monotonic.i24:                                    ; preds = %_ZNKSt13__atomic_baseImE4loadESt12memory_order.exit
  %10 = load i64, ptr %.atomictmp.i17, align 8
  %11 = atomicrmw add ptr %this1.i19, i64 %10 monotonic, align 8
  store i64 %11, ptr %atomic-temp.i18, align 8
  br label %_ZNSt13__atomic_baseImE9fetch_addEmSt12memory_order.exit25

acquire.i23:                                      ; preds = %_ZNKSt13__atomic_baseImE4loadESt12memory_order.exit, %_ZNKSt13__atomic_baseImE4loadESt12memory_order.exit
  %12 = load i64, ptr %.atomictmp.i17, align 8
  %13 = atomicrmw add ptr %this1.i19, i64 %12 acquire, align 8
  store i64 %13, ptr %atomic-temp.i18, align 8
  br label %_ZNSt13__atomic_baseImE9fetch_addEmSt12memory_order.exit25

release.i22:                                      ; preds = %_ZNKSt13__atomic_baseImE4loadESt12memory_order.exit
  %14 = load i64, ptr %.atomictmp.i17, align 8
  %15 = atomicrmw add ptr %this1.i19, i64 %14 release, align 8
  store i64 %15, ptr %atomic-temp.i18, align 8
  br label %_ZNSt13__atomic_baseImE9fetch_addEmSt12memory_order.exit25

acqrel.i21:                                       ; preds = %_ZNKSt13__atomic_baseImE4loadESt12memory_order.exit
  %16 = load i64, ptr %.atomictmp.i17, align 8
  %17 = atomicrmw add ptr %this1.i19, i64 %16 acq_rel, align 8
  store i64 %17, ptr %atomic-temp.i18, align 8
  br label %_ZNSt13__atomic_baseImE9fetch_addEmSt12memory_order.exit25

seqcst.i20:                                       ; preds = %_ZNKSt13__atomic_baseImE4loadESt12memory_order.exit
  %18 = load i64, ptr %.atomictmp.i17, align 8
  %19 = atomicrmw add ptr %this1.i19, i64 %18 seq_cst, align 8
  store i64 %19, ptr %atomic-temp.i18, align 8
  br label %_ZNSt13__atomic_baseImE9fetch_addEmSt12memory_order.exit25

_ZNSt13__atomic_baseImE9fetch_addEmSt12memory_order.exit25: ; preds = %seqcst.i20, %acqrel.i21, %release.i22, %acquire.i23, %monotonic.i24
  %free_bytes_ = getelementptr inbounds %"class.grpc_core::GrpcMemoryAllocatorImpl", ptr %this1, i32 0, i32 2
  %20 = load i64, ptr %amount, align 8
  store ptr %free_bytes_, ptr %this.addr.i7, align 8
  store i64 %20, ptr %__i.addr.i, align 8
  store i32 4, ptr %__m.addr.i8, align 4
  %this1.i10 = load ptr, ptr %this.addr.i7, align 8
  %21 = load i32, ptr %__m.addr.i8, align 4
  %22 = load i64, ptr %__i.addr.i, align 8
  store i64 %22, ptr %.atomictmp.i, align 8
  switch i32 %21, label %monotonic.i13 [
    i32 1, label %acquire.i12
    i32 2, label %acquire.i12
    i32 3, label %release.i
    i32 4, label %acqrel.i
    i32 5, label %seqcst.i11
  ]

monotonic.i13:                                    ; preds = %_ZNSt13__atomic_baseImE9fetch_addEmSt12memory_order.exit25
  %23 = load i64, ptr %.atomictmp.i, align 8
  %24 = atomicrmw add ptr %this1.i10, i64 %23 monotonic, align 8
  store i64 %24, ptr %atomic-temp.i9, align 8
  br label %_ZNSt13__atomic_baseImE9fetch_addEmSt12memory_order.exit

acquire.i12:                                      ; preds = %_ZNSt13__atomic_baseImE9fetch_addEmSt12memory_order.exit25, %_ZNSt13__atomic_baseImE9fetch_addEmSt12memory_order.exit25
  %25 = load i64, ptr %.atomictmp.i, align 8
  %26 = atomicrmw add ptr %this1.i10, i64 %25 acquire, align 8
  store i64 %26, ptr %atomic-temp.i9, align 8
  br label %_ZNSt13__atomic_baseImE9fetch_addEmSt12memory_order.exit

release.i:                                        ; preds = %_ZNSt13__atomic_baseImE9fetch_addEmSt12memory_order.exit25
  %27 = load i64, ptr %.atomictmp.i, align 8
  %28 = atomicrmw add ptr %this1.i10, i64 %27 release, align 8
  store i64 %28, ptr %atomic-temp.i9, align 8
  br label %_ZNSt13__atomic_baseImE9fetch_addEmSt12memory_order.exit

acqrel.i:                                         ; preds = %_ZNSt13__atomic_baseImE9fetch_addEmSt12memory_order.exit25
  %29 = load i64, ptr %.atomictmp.i, align 8
  %30 = atomicrmw add ptr %this1.i10, i64 %29 acq_rel, align 8
  store i64 %30, ptr %atomic-temp.i9, align 8
  br label %_ZNSt13__atomic_baseImE9fetch_addEmSt12memory_order.exit

seqcst.i11:                                       ; preds = %_ZNSt13__atomic_baseImE9fetch_addEmSt12memory_order.exit25
  %31 = load i64, ptr %.atomictmp.i, align 8
  %32 = atomicrmw add ptr %this1.i10, i64 %31 seq_cst, align 8
  store i64 %32, ptr %atomic-temp.i9, align 8
  br label %_ZNSt13__atomic_baseImE9fetch_addEmSt12memory_order.exit

_ZNSt13__atomic_baseImE9fetch_addEmSt12memory_order.exit: ; preds = %seqcst.i11, %acqrel.i, %release.i, %acquire.i12, %monotonic.i13
  ret void
}