; Function Attrs: mustprogress uwtable
define void @_ZN9grpc_core23GrpcMemoryAllocatorImpl9ReplenishEv(ptr noundef nonnull align 8 dereferenceable(136) %this) local_unnamed_addr #4 align 2 {
entry:
  %taken_bytes_ = getelementptr inbounds i8, ptr %this, i64 48
  %0 = load atomic i64, ptr %taken_bytes_ monotonic, align 8
  %div = udiv i64 %0, 3
  %cmp.i = icmp ult i64 %0, 12288
  %max.val.i = tail call i64 @llvm.umin.i64(i64 %div, i64 1048576)
  %retval.0.i = select i1 %cmp.i, i64 4096, i64 %max.val.i
  %memory_quota_ = getelementptr inbounds i8, ptr %this, i64 24
  %1 = load ptr, ptr %memory_quota_, align 8
  tail call void @_ZN9grpc_core16BasicMemoryQuota4TakeEPNS_23GrpcMemoryAllocatorImplEm(ptr noundef nonnull align 8 dereferenceable(1488) %1, ptr noundef nonnull %this, i64 noundef %retval.0.i)
  %2 = atomicrmw add ptr %taken_bytes_, i64 %retval.0.i monotonic, align 8
  %free_bytes_ = getelementptr inbounds i8, ptr %this, i64 40
  %3 = atomicrmw add ptr %free_bytes_, i64 %retval.0.i acq_rel, align 8
  ret void
}